; Function Attrs: nounwind uwtable
define internal fastcc void @Abc_FlowRetime_UpdateLags_back_rec(ptr noundef readonly captures(none) %0) unnamed_addr #0 {
  %2 = getelementptr i8, ptr %0, i64 20
  %.val13 = load i32, ptr %2, align 4
  %3 = and i32 %.val13, 15
  %.not = icmp eq i32 %3, 5
  br i1 %.not, label %.critedge, label %4

4:                                                ; preds = %1
  %5 = tail call fastcc i32 @Abc_NodeIsTravIdCurrent(ptr noundef nonnull %0)
  %.not11 = icmp eq i32 %5, 0
  br i1 %.not11, label %6, label %.critedge

6:                                                ; preds = %4
  %.val16 = load ptr, ptr %0, align 8, !tbaa !52
  %7 = getelementptr i8, ptr %0, i64 16
  %.val17 = load i32, ptr %7, align 8, !tbaa !80
  %8 = getelementptr inbounds nuw i8, ptr %.val16, i64 216
  %9 = load i32, ptr %8, align 8, !tbaa !119
  %10 = getelementptr inbounds nuw i8, ptr %.val16, i64 224
  %11 = add nsw i32 %.val17, 1
  %12 = getelementptr inbounds nuw i8, ptr %.val16, i64 228
  %13 = load i32, ptr %12, align 4, !tbaa !68
  %.not.i.not.i.i.i = icmp slt i32 %.val17, %13
  br i1 %.not.i.not.i.i.i, label %Abc_NodeSetTravIdCurrent.exit, label %14

14:                                               ; preds = %6
  %15 = load i32, ptr %10, align 8, !tbaa !66
  %16 = shl nsw i32 %15, 1
  %.not.i.i.i = icmp slt i32 %.val17, %16
  %.not.i.i.not.i.i.i = icmp sgt i32 %15, %.val17
  br i1 %.not.i.i.i, label %29, label %17

17:                                               ; preds = %14
  br i1 %.not.i.i.not.i.i.i, label %Vec_IntGrow.exit.i.i.i.i, label %18

18:                                               ; preds = %17
  %19 = getelementptr inbounds nuw i8, ptr %.val16, i64 232
  %20 = load ptr, ptr %19, align 8, !tbaa !67
  %.not9.i.i.i.i.i = icmp eq ptr %20, null
  %21 = sext i32 %11 to i64
  %22 = shl nsw i64 %21, 2
  br i1 %.not9.i.i.i.i.i, label %25, label %23

23:                                               ; preds = %18
  %24 = tail call ptr @realloc(ptr noundef nonnull %20, i64 noundef %22) #19
  br label %27

25:                                               ; preds = %18
  %26 = tail call noalias ptr @malloc(i64 noundef %22) #17
  br label %27

27:                                               ; preds = %25, %23
  %28 = phi ptr [ %24, %23 ], [ %26, %25 ]
  store ptr %28, ptr %19, align 8, !tbaa !67
  br label %Vec_IntGrow.exit.sink.split.i.i.i.i

29:                                               ; preds = %14
  br i1 %.not.i.i.not.i.i.i, label %Vec_IntGrow.exit.i.i.i.i, label %30

30:                                               ; preds = %29
  %31 = getelementptr inbounds nuw i8, ptr %.val16, i64 232
  %32 = load ptr, ptr %31, align 8, !tbaa !67
  %.not9.i21.i.i.i.i = icmp eq ptr %32, null
  %33 = sext i32 %16 to i64
  %34 = shl nsw i64 %33, 2
  br i1 %.not9.i21.i.i.i.i, label %37, label %35

35:                                               ; preds = %30
  %36 = tail call ptr @realloc(ptr noundef nonnull %32, i64 noundef %34) #19
  br label %39

37:                                               ; preds = %30
  %38 = tail call noalias ptr @malloc(i64 noundef %34) #17
  br label %39

39:                                               ; preds = %37, %35
  %40 = phi ptr [ %36, %35 ], [ %38, %37 ]
  store ptr %40, ptr %31, align 8, !tbaa !67
  br label %Vec_IntGrow.exit.sink.split.i.i.i.i

Vec_IntGrow.exit.sink.split.i.i.i.i:              ; preds = %39, %27
  %.sink.i.i.i.i = phi i32 [ %16, %39 ], [ %11, %27 ]
  store i32 %.sink.i.i.i.i, ptr %10, align 8, !tbaa !66
  %.pre.i.i.i = load i32, ptr %12, align 4, !tbaa !68
  br label %Vec_IntGrow.exit.i.i.i.i

Vec_IntGrow.exit.i.i.i.i:                         ; preds = %Vec_IntGrow.exit.sink.split.i.i.i.i, %29, %17
  %41 = phi i32 [ %.pre.i.i.i, %Vec_IntGrow.exit.sink.split.i.i.i.i ], [ %13, %29 ], [ %13, %17 ]
  %.not4.i.i.i = icmp sgt i32 %41, %.val17
  br i1 %.not4.i.i.i, label %._crit_edge.i.i.i.i, label %.lr.ph.i.i.i.i

.lr.ph.i.i.i.i:                                   ; preds = %Vec_IntGrow.exit.i.i.i.i
  %42 = getelementptr inbounds nuw i8, ptr %.val16, i64 232
  %43 = load ptr, ptr %42, align 8, !tbaa !67
  %44 = sext i32 %41 to i64
  %45 = shl nsw i64 %44, 2
  %scevgep.i.i.i.i = getelementptr i8, ptr %43, i64 %45
  %46 = sub i32 %.val17, %41
  %47 = zext i32 %46 to i64
  %48 = shl nuw nsw i64 %47, 2
  %49 = add nuw nsw i64 %48, 4
  tail call void @llvm.memset.p0.i64(ptr noundef nonnull align 4 dereferenceable(1) %scevgep.i.i.i.i, i8 0, i64 %49, i1 false), !tbaa !48
  br label %._crit_edge.i.i.i.i

._crit_edge.i.i.i.i:                              ; preds = %.lr.ph.i.i.i.i, %Vec_IntGrow.exit.i.i.i.i
  store i32 %11, ptr %12, align 4, !tbaa !68
  br label %Abc_NodeSetTravIdCurrent.exit

Abc_NodeSetTravIdCurrent.exit:                    ; preds = %6, %._crit_edge.i.i.i.i
  %50 = getelementptr i8, ptr %.val16, i64 232
  %.val.i.i.i = load ptr, ptr %50, align 8, !tbaa !67
  %51 = sext i32 %.val17 to i64
  %52 = getelementptr inbounds i32, ptr %.val.i.i.i, i64 %51
  store i32 %9, ptr %52, align 4, !tbaa !48
  %.val18 = load i32, ptr %2, align 4
  %53 = and i32 %.val18, 15
  %.not21 = icmp eq i32 %53, 7
  br i1 %.not21, label %54, label %63

54:                                               ; preds = %Abc_NodeSetTravIdCurrent.exit
  %55 = load ptr, ptr @pManMR, align 8, !tbaa !3
  %56 = getelementptr inbounds nuw i8, ptr %55, i64 96
  %57 = load ptr, ptr %56, align 8, !tbaa !70
  %.val.i = load i32, ptr %7, align 8, !tbaa !80
  %58 = getelementptr i8, ptr %57, i64 8
  %.val1.i = load ptr, ptr %58, align 8, !tbaa !67
  %59 = sext i32 %.val.i to i64
  %60 = getelementptr inbounds i32, ptr %.val1.i, i64 %59
  %61 = load i32, ptr %60, align 4, !tbaa !48
  %62 = add nsw i32 %61, 1
  store i32 %62, ptr %60, align 4, !tbaa !48
  br label %63

63:                                               ; preds = %54, %Abc_NodeSetTravIdCurrent.exit
  %64 = getelementptr i8, ptr %0, i64 44
  %.val22 = load i32, ptr %64, align 4, !tbaa !58
  %65 = icmp sgt i32 %.val22, 0
  br i1 %65, label %.lr.ph, label %.critedge

.lr.ph:                                           ; preds = %63
  %66 = getelementptr i8, ptr %0, i64 48
  br label %67

67:                                               ; preds = %.lr.ph, %67
  %indvars.iv = phi i64 [ 0, %.lr.ph ], [ %indvars.iv.next, %67 ]
  %.val14 = load ptr, ptr %0, align 8, !tbaa !52
  %.val15 = load ptr, ptr %66, align 8, !tbaa !57
  %68 = getelementptr i8, ptr %.val14, i64 32
  %.val14.val = load ptr, ptr %68, align 8, !tbaa !56
  %69 = getelementptr i8, ptr %.val14.val, i64 8
  %.val14.val.val = load ptr, ptr %69, align 8, !tbaa !28
  %70 = getelementptr inbounds nuw i32, ptr %.val15, i64 %indvars.iv
  %71 = load i32, ptr %70, align 4, !tbaa !48
  %72 = sext i32 %71 to i64
  %73 = getelementptr inbounds ptr, ptr %.val14.val.val, i64 %72
  %74 = load ptr, ptr %73, align 8, !tbaa !51
  tail call fastcc void @Abc_FlowRetime_UpdateLags_back_rec(ptr noundef %74)
  %indvars.iv.next = add nuw nsw i64 %indvars.iv, 1
  %.val = load i32, ptr %64, align 4, !tbaa !58
  %75 = sext i32 %.val to i64
  %76 = icmp slt i64 %indvars.iv.next, %75
  br i1 %76, label %67, label %.critedge, !llvm.loop !124

.critedge:                                        ; preds = %67, %63, %4, %1
  ret void
}